target datalayout = "e-m:e-p270:32:32-p271:32:32-p272:64:64-i64:64-i128:128-f80:128-n8:16:32:64-S128"
target triple = "x86_64-pc-linux-gnu"

%struct._GArray = type { ptr, i32 }

@.str.82 = private unnamed_addr constant [66 x i8] c"editcap: The available capture file types for the \22-F\22 flag are:\0A\00", align 1
@.str.83 = private unnamed_addr constant [13 x i8] c"    %s - %s\0A\00", align 1

; Function Attrs: null_pointer_is_valid sspstrong uwtable
define internal void @list_capture_types(ptr noundef %0) #0 {
  %2 = alloca ptr, align 8
  %3 = alloca ptr, align 8
  %4 = alloca i32, align 4
  %5 = alloca i32, align 4
  store ptr %0, ptr %2, align 8
  call void @llvm.lifetime.start.p0(i64 8, ptr %3) #14
  %6 = load ptr, ptr %2, align 8
  %7 = call i32 (ptr, i32, ptr, ...) @__fprintf_chk(ptr noundef %6, i32 noundef 2, ptr noundef @.str.82)
  %8 = call ptr @wtap_get_writable_file_types_subtypes(i32 noundef 0)
  store ptr %8, ptr %3, align 8
  call void @llvm.lifetime.start.p0(i64 4, ptr %4) #14
  store i32 0, ptr %4, align 4
  br label %9

9:                                                ; preds = %30, %1
  %10 = load i32, ptr %4, align 4
  %11 = load ptr, ptr %3, align 8
  %12 = getelementptr inbounds nuw %struct._GArray, ptr %11, i32 0, i32 1
  %13 = load i32, ptr %12, align 8
  %14 = icmp ult i32 %10, %13
  br i1 %14, label %16, label %15

15:                                               ; preds = %9
  call void @llvm.lifetime.end.p0(i64 4, ptr %4) #14
  br label %33

16:                                               ; preds = %9
  call void @llvm.lifetime.start.p0(i64 4, ptr %5) #14
  %17 = load ptr, ptr %3, align 8
  %18 = getelementptr inbounds nuw %struct._GArray, ptr %17, i32 0, i32 0
  %19 = load ptr, ptr %18, align 8
  %20 = load i32, ptr %4, align 4
  %21 = zext i32 %20 to i64
  %22 = getelementptr i32, ptr %19, i64 %21
  %23 = load i32, ptr %22, align 4
  store i32 %23, ptr %5, align 4
  %24 = load ptr, ptr %2, align 8
  %25 = load i32, ptr %5, align 4
  %26 = call ptr @wtap_file_type_subtype_name(i32 noundef %25)
  %27 = load i32, ptr %5, align 4
  %28 = call ptr @wtap_file_type_subtype_description(i32 noundef %27)
  %29 = call i32 (ptr, i32, ptr, ...) @__fprintf_chk(ptr noundef %24, i32 noundef 2, ptr noundef @.str.83, ptr noundef %26, ptr noundef %28)
  call void @llvm.lifetime.end.p0(i64 4, ptr %5) #14
  br label %30

30:                                               ; preds = %16
  %31 = load i32, ptr %4, align 4
  %32 = add i32 %31, 1
  store i32 %32, ptr %4, align 4
  br label %9, !llvm.loop !30

33:                                               ; preds = %15
  %34 = load ptr, ptr %3, align 8
  %35 = call ptr @g_array_free(ptr noundef %34, i32 noundef 1)
  call void @llvm.lifetime.end.p0(i64 8, ptr %3) #14
  ret void
}