; Function Attrs: null_pointer_is_valid sspstrong uwtable
define internal fastcc void @list_capture_types(ptr noundef %0) unnamed_addr #0 {
  %2 = tail call i32 (ptr, i32, ptr, ...) @__fprintf_chk(ptr noundef %0, i32 noundef 2, ptr noundef nonnull @.str.82)
  %3 = tail call ptr @wtap_get_writable_file_types_subtypes(i32 noundef 0)
  %4 = getelementptr inbounds nuw i8, ptr %3, i64 8
  %5 = load i32, ptr %4, align 8
  %.not = icmp eq i32 %5, 0
  br i1 %.not, label %._crit_edge, label %.lr.ph

._crit_edge:                                      ; preds = %.lr.ph, %1
  %6 = tail call ptr @g_array_free(ptr noundef %3, i32 noundef 1)
  ret void

.lr.ph:                                           ; preds = %1, %.lr.ph
  %indvars.iv = phi i64 [ %indvars.iv.next, %.lr.ph ], [ 0, %1 ]
  %7 = load ptr, ptr %3, align 8
  %8 = getelementptr i32, ptr %7, i64 %indvars.iv
  %9 = load i32, ptr %8, align 4
  %10 = tail call ptr @wtap_file_type_subtype_name(i32 noundef %9)
  %11 = tail call ptr @wtap_file_type_subtype_description(i32 noundef %9)
  %12 = tail call i32 (ptr, i32, ptr, ...) @__fprintf_chk(ptr noundef %0, i32 noundef 2, ptr noundef nonnull @.str.83, ptr noundef %10, ptr noundef %11)
  %indvars.iv.next = add nuw nsw i64 %indvars.iv, 1
  %13 = load i32, ptr %4, align 8
  %14 = zext i32 %13 to i64
  %15 = icmp samesign ult i64 %indvars.iv.next, %14
  br i1 %15, label %.lr.ph, label %._crit_edge, !llvm.loop !34
}